target datalayout = "e-m:e-p270:32:32-p271:32:32-p272:64:64-i64:64-i128:128-f80:128-n8:16:32:64-S128"
target triple = "x86_64-pc-linux-gnu"

%struct.exec_wait_info = type { i32, i32, i32, i32 }

@.str.156 = private unnamed_addr constant [45 x i8] c"_exec_wait_child_wait_for_parent: failed: %m\00", align 1

; Function Attrs: nounwind uwtable
define internal i32 @_exec_wait_child_wait_for_parent(ptr noundef %0) #0 {
  %2 = alloca i32, align 4
  %3 = alloca ptr, align 8
  %4 = alloca i8, align 1
  %5 = alloca i32, align 4
  store ptr %0, ptr %3, align 8
  call void @llvm.lifetime.start.p0(i64 1, ptr %4) #12
  %6 = load ptr, ptr %3, align 8
  %7 = getelementptr inbounds nuw %struct.exec_wait_info, ptr %6, i32 0, i32 3
  %8 = load i32, ptr %7, align 4
  %9 = call i64 @read(i32 noundef %8, ptr noundef %4, i64 noundef 1)
  %10 = icmp ne i64 %9, 1
  br i1 %10, label %11, label %13

11:                                               ; preds = %1
  %12 = call i32 (ptr, ...) @error(ptr noundef @.str.156)
  store i32 %12, ptr %2, align 4
  store i32 1, ptr %5, align 4
  br label %14

13:                                               ; preds = %1
  store i32 0, ptr %2, align 4
  store i32 1, ptr %5, align 4
  br label %14

14:                                               ; preds = %13, %11
  call void @llvm.lifetime.end.p0(i64 1, ptr %4) #12
  %15 = load i32, ptr %2, align 4
  ret i32 %15
}