; Function Attrs: nounwind uwtable
define internal fastcc i32 @_exec_wait_child_wait_for_parent(i32 %.12.val) unnamed_addr #0 {
  %1 = alloca i8, align 1
  call void @llvm.lifetime.start.p0(i64 1, ptr nonnull %1) #17
  %2 = call i64 @read(i32 noundef %.12.val, ptr noundef nonnull %1, i64 noundef 1) #17
  %.not = icmp eq i64 %2, 1
  br i1 %.not, label %5, label %3

3:                                                ; preds = %0
  %4 = tail call i32 (ptr, ...) @error(ptr noundef nonnull @.str.156) #17
  br label %5

5:                                                ; preds = %0, %3
  %.0 = phi i32 [ %4, %3 ], [ 0, %0 ]
  call void @llvm.lifetime.end.p0(i64 1, ptr nonnull %1) #17
  ret i32 %.0
}